target datalayout = "e-m:e-p270:32:32-p271:32:32-p272:64:64-i64:64-i128:128-f80:128-n8:16:32:64-S128"
target triple = "x86_64-pc-linux-gnu"

%struct.PJconsts = type { ptr, ptr, ptr, ptr, ptr, ptr, ptr, ptr, ptr, ptr, ptr, ptr, i32, ptr, ptr, ptr, ptr, ptr, ptr, ptr, ptr, double, double, double, double, double, double, double, double, double, double, double, double, double, double, double, double, double, double, double, double, double, double, i32, i32, i32, i32, i32, i32, i32, i32, i32, i32, i32, ptr, ptr, ptr, ptr, ptr, ptr, double, double, double, double, double, double, double, double, double, double, double, i32, [7 x double], i32, ptr, ptr, double, double, i32, [4 x i8], %"class.std::shared_ptr", i8, double, i8, %"class.std::__cxx11::basic_string", %"class.std::__cxx11::basic_string", %"class.std::__cxx11::basic_string", i8, %"class.std::vector", i32, %"class.std::vector.3", i32, i8, i8, i8, ptr }
%"class.std::shared_ptr" = type { %"class.std::__shared_ptr" }
%"class.std::__shared_ptr" = type { ptr, %"class.std::__shared_count" }
%"class.std::__shared_count" = type { ptr }
%"class.std::__cxx11::basic_string" = type { %"struct.std::__cxx11::basic_string<char>::_Alloc_hider", i64, %union.anon }
%"struct.std::__cxx11::basic_string<char>::_Alloc_hider" = type { ptr }
%union.anon = type { i64, [8 x i8] }
%"class.std::vector" = type { %"struct.std::_Vector_base" }
%"struct.std::_Vector_base" = type { %"struct.std::_Vector_base<osgeo::proj::operation::GridDescription, std::allocator<osgeo::proj::operation::GridDescription>>::_Vector_impl" }
%"struct.std::_Vector_base<osgeo::proj::operation::GridDescription, std::allocator<osgeo::proj::operation::GridDescription>>::_Vector_impl" = type { %"struct.std::_Vector_base<osgeo::proj::operation::GridDescription, std::allocator<osgeo::proj::operation::GridDescription>>::_Vector_impl_data" }
%"struct.std::_Vector_base<osgeo::proj::operation::GridDescription, std::allocator<osgeo::proj::operation::GridDescription>>::_Vector_impl_data" = type { ptr, ptr, ptr }
%"class.std::vector.3" = type { %"struct.std::_Vector_base.4" }
%"struct.std::_Vector_base.4" = type { %"struct.std::_Vector_base<PJCoordOperation, std::allocator<PJCoordOperation>>::_Vector_impl" }
%"struct.std::_Vector_base<PJCoordOperation, std::allocator<PJCoordOperation>>::_Vector_impl" = type { %"struct.std::_Vector_base<PJCoordOperation, std::allocator<PJCoordOperation>>::_Vector_impl_data" }
%"struct.std::_Vector_base<PJCoordOperation, std::allocator<PJCoordOperation>>::_Vector_impl_data" = type { ptr, ptr, ptr }
%"struct.(anonymous namespace)::pj_sch_data" = type { double, double, double, double, [9 x double], [3 x double], double, ptr, ptr }
%struct.PJ_LPZ = type { double, double, double }
%struct.PJ_XYZ = type { double, double, double }

; Function Attrs: mustprogress uwtable
define internal void @_ZL13sch_forward3d6PJ_LPZP8PJconsts(ptr dead_on_unwind noalias writable sret(%struct.PJ_XYZ) align 8 %0, ptr noundef byval(%struct.PJ_LPZ) align 8 %1, ptr noundef %2) #0 {
  %4 = alloca ptr, align 8
  %5 = alloca ptr, align 8
  %6 = alloca %struct.PJ_LPZ, align 8
  %7 = alloca %struct.PJ_XYZ, align 8
  %8 = alloca %struct.PJ_LPZ, align 8
  %9 = alloca %struct.PJ_XYZ, align 8
  store ptr %2, ptr %4, align 8, !tbaa !3
  call void @llvm.lifetime.start.p0(i64 8, ptr %5) #8
  %10 = load ptr, ptr %4, align 8, !tbaa !3
  %11 = getelementptr inbounds nuw %struct.PJconsts, ptr %10, i32 0, i32 11
  %12 = load ptr, ptr %11, align 8, !tbaa !43
  store ptr %12, ptr %5, align 8, !tbaa !41
  %13 = load ptr, ptr %5, align 8, !tbaa !41
  %14 = getelementptr inbounds nuw %"struct.(anonymous namespace)::pj_sch_data", ptr %13, i32 0, i32 7
  %15 = load ptr, ptr %14, align 8, !tbaa !54
  %16 = getelementptr inbounds nuw %struct.PJconsts, ptr %15, i32 0, i32 15
  %17 = load ptr, ptr %16, align 8, !tbaa !64
  call void @llvm.memcpy.p0.p0.i64(ptr align 8 %6, ptr align 8 %1, i64 24, i1 false), !tbaa.struct !65
  %18 = load ptr, ptr %5, align 8, !tbaa !41
  %19 = getelementptr inbounds nuw %"struct.(anonymous namespace)::pj_sch_data", ptr %18, i32 0, i32 7
  %20 = load ptr, ptr %19, align 8, !tbaa !54
  call void %17(ptr dead_on_unwind writable sret(%struct.PJ_XYZ) align 8 %0, ptr noundef byval(%struct.PJ_LPZ) align 8 %6, ptr noundef %20)
  %21 = load ptr, ptr %5, align 8, !tbaa !41
  %22 = getelementptr inbounds nuw %"struct.(anonymous namespace)::pj_sch_data", ptr %21, i32 0, i32 5
  %23 = getelementptr inbounds [3 x double], ptr %22, i64 0, i64 0
  %24 = load double, ptr %23, align 8, !tbaa !56
  %25 = getelementptr inbounds nuw %struct.PJ_XYZ, ptr %0, i32 0, i32 0
  %26 = load double, ptr %25, align 8, !tbaa !66
  %27 = fsub double %26, %24
  store double %27, ptr %25, align 8, !tbaa !66
  %28 = load ptr, ptr %5, align 8, !tbaa !41
  %29 = getelementptr inbounds nuw %"struct.(anonymous namespace)::pj_sch_data", ptr %28, i32 0, i32 5
  %30 = getelementptr inbounds [3 x double], ptr %29, i64 0, i64 1
  %31 = load double, ptr %30, align 8, !tbaa !56
  %32 = getelementptr inbounds nuw %struct.PJ_XYZ, ptr %0, i32 0, i32 1
  %33 = load double, ptr %32, align 8, !tbaa !68
  %34 = fsub double %33, %31
  store double %34, ptr %32, align 8, !tbaa !68
  %35 = load ptr, ptr %5, align 8, !tbaa !41
  %36 = getelementptr inbounds nuw %"struct.(anonymous namespace)::pj_sch_data", ptr %35, i32 0, i32 5
  %37 = getelementptr inbounds [3 x double], ptr %36, i64 0, i64 2
  %38 = load double, ptr %37, align 8, !tbaa !56
  %39 = getelementptr inbounds nuw %struct.PJ_XYZ, ptr %0, i32 0, i32 2
  %40 = load double, ptr %39, align 8, !tbaa !69
  %41 = fsub double %40, %38
  store double %41, ptr %39, align 8, !tbaa !69
  call void @llvm.lifetime.start.p0(i64 24, ptr %7) #8
  %42 = getelementptr inbounds nuw %struct.PJ_XYZ, ptr %7, i32 0, i32 0
  %43 = load ptr, ptr %5, align 8, !tbaa !41
  %44 = getelementptr inbounds nuw %"struct.(anonymous namespace)::pj_sch_data", ptr %43, i32 0, i32 4
  %45 = getelementptr inbounds [9 x double], ptr %44, i64 0, i64 0
  %46 = load double, ptr %45, align 8, !tbaa !56
  %47 = getelementptr inbounds nuw %struct.PJ_XYZ, ptr %0, i32 0, i32 0
  %48 = load double, ptr %47, align 8, !tbaa !66
  %49 = load ptr, ptr %5, align 8, !tbaa !41
  %50 = getelementptr inbounds nuw %"struct.(anonymous namespace)::pj_sch_data", ptr %49, i32 0, i32 4
  %51 = getelementptr inbounds [9 x double], ptr %50, i64 0, i64 3
  %52 = load double, ptr %51, align 8, !tbaa !56
  %53 = getelementptr inbounds nuw %struct.PJ_XYZ, ptr %0, i32 0, i32 1
  %54 = load double, ptr %53, align 8, !tbaa !68
  %55 = fmul double %52, %54
  %56 = call double @llvm.fmuladd.f64(double %46, double %48, double %55)
  %57 = load ptr, ptr %5, align 8, !tbaa !41
  %58 = getelementptr inbounds nuw %"struct.(anonymous namespace)::pj_sch_data", ptr %57, i32 0, i32 4
  %59 = getelementptr inbounds [9 x double], ptr %58, i64 0, i64 6
  %60 = load double, ptr %59, align 8, !tbaa !56
  %61 = getelementptr inbounds nuw %struct.PJ_XYZ, ptr %0, i32 0, i32 2
  %62 = load double, ptr %61, align 8, !tbaa !69
  %63 = call double @llvm.fmuladd.f64(double %60, double %62, double %56)
  store double %63, ptr %42, align 8, !tbaa !66
  %64 = getelementptr inbounds nuw %struct.PJ_XYZ, ptr %7, i32 0, i32 1
  %65 = load ptr, ptr %5, align 8, !tbaa !41
  %66 = getelementptr inbounds nuw %"struct.(anonymous namespace)::pj_sch_data", ptr %65, i32 0, i32 4
  %67 = getelementptr inbounds [9 x double], ptr %66, i64 0, i64 1
  %68 = load double, ptr %67, align 8, !tbaa !56
  %69 = getelementptr inbounds nuw %struct.PJ_XYZ, ptr %0, i32 0, i32 0
  %70 = load double, ptr %69, align 8, !tbaa !66
  %71 = load ptr, ptr %5, align 8, !tbaa !41
  %72 = getelementptr inbounds nuw %"struct.(anonymous namespace)::pj_sch_data", ptr %71, i32 0, i32 4
  %73 = getelementptr inbounds [9 x double], ptr %72, i64 0, i64 4
  %74 = load double, ptr %73, align 8, !tbaa !56
  %75 = getelementptr inbounds nuw %struct.PJ_XYZ, ptr %0, i32 0, i32 1
  %76 = load double, ptr %75, align 8, !tbaa !68
  %77 = fmul double %74, %76
  %78 = call double @llvm.fmuladd.f64(double %68, double %70, double %77)
  %79 = load ptr, ptr %5, align 8, !tbaa !41
  %80 = getelementptr inbounds nuw %"struct.(anonymous namespace)::pj_sch_data", ptr %79, i32 0, i32 4
  %81 = getelementptr inbounds [9 x double], ptr %80, i64 0, i64 7
  %82 = load double, ptr %81, align 8, !tbaa !56
  %83 = getelementptr inbounds nuw %struct.PJ_XYZ, ptr %0, i32 0, i32 2
  %84 = load double, ptr %83, align 8, !tbaa !69
  %85 = call double @llvm.fmuladd.f64(double %82, double %84, double %78)
  store double %85, ptr %64, align 8, !tbaa !68
  %86 = getelementptr inbounds nuw %struct.PJ_XYZ, ptr %7, i32 0, i32 2
  %87 = load ptr, ptr %5, align 8, !tbaa !41
  %88 = getelementptr inbounds nuw %"struct.(anonymous namespace)::pj_sch_data", ptr %87, i32 0, i32 4
  %89 = getelementptr inbounds [9 x double], ptr %88, i64 0, i64 2
  %90 = load double, ptr %89, align 8, !tbaa !56
  %91 = getelementptr inbounds nuw %struct.PJ_XYZ, ptr %0, i32 0, i32 0
  %92 = load double, ptr %91, align 8, !tbaa !66
  %93 = load ptr, ptr %5, align 8, !tbaa !41
  %94 = getelementptr inbounds nuw %"struct.(anonymous namespace)::pj_sch_data", ptr %93, i32 0, i32 4
  %95 = getelementptr inbounds [9 x double], ptr %94, i64 0, i64 5
  %96 = load double, ptr %95, align 8, !tbaa !56
  %97 = getelementptr inbounds nuw %struct.PJ_XYZ, ptr %0, i32 0, i32 1
  %98 = load double, ptr %97, align 8, !tbaa !68
  %99 = fmul double %96, %98
  %100 = call double @llvm.fmuladd.f64(double %90, double %92, double %99)
  %101 = load ptr, ptr %5, align 8, !tbaa !41
  %102 = getelementptr inbounds nuw %"struct.(anonymous namespace)::pj_sch_data", ptr %101, i32 0, i32 4
  %103 = getelementptr inbounds [9 x double], ptr %102, i64 0, i64 8
  %104 = load double, ptr %103, align 8, !tbaa !56
  %105 = getelementptr inbounds nuw %struct.PJ_XYZ, ptr %0, i32 0, i32 2
  %106 = load double, ptr %105, align 8, !tbaa !69
  %107 = call double @llvm.fmuladd.f64(double %104, double %106, double %100)
  store double %107, ptr %86, align 8, !tbaa !69
  call void @llvm.memcpy.p0.p0.i64(ptr align 8 %0, ptr align 8 %7, i64 24, i1 false), !tbaa.struct !65
  call void @llvm.lifetime.end.p0(i64 24, ptr %7) #8
  call void @llvm.lifetime.start.p0(i64 24, ptr %8) #8
  %108 = load ptr, ptr %5, align 8, !tbaa !41
  %109 = getelementptr inbounds nuw %"struct.(anonymous namespace)::pj_sch_data", ptr %108, i32 0, i32 8
  %110 = load ptr, ptr %109, align 8, !tbaa !55
  %111 = getelementptr inbounds nuw %struct.PJconsts, ptr %110, i32 0, i32 16
  %112 = load ptr, ptr %111, align 8, !tbaa !70
  call void @llvm.memcpy.p0.p0.i64(ptr align 8 %9, ptr align 8 %0, i64 24, i1 false), !tbaa.struct !65
  %113 = load ptr, ptr %5, align 8, !tbaa !41
  %114 = getelementptr inbounds nuw %"struct.(anonymous namespace)::pj_sch_data", ptr %113, i32 0, i32 8
  %115 = load ptr, ptr %114, align 8, !tbaa !55
  call void %112(ptr dead_on_unwind writable sret(%struct.PJ_LPZ) align 8 %8, ptr noundef byval(%struct.PJ_XYZ) align 8 %9, ptr noundef %115)
  call void @llvm.memcpy.p0.p0.i64(ptr align 8 %1, ptr align 8 %8, i64 24, i1 false), !tbaa.struct !65
  call void @llvm.lifetime.end.p0(i64 24, ptr %8) #8
  %116 = getelementptr inbounds nuw %struct.PJ_LPZ, ptr %1, i32 0, i32 0
  %117 = load double, ptr %116, align 8, !tbaa !60
  %118 = load ptr, ptr %5, align 8, !tbaa !41
  %119 = getelementptr inbounds nuw %"struct.(anonymous namespace)::pj_sch_data", ptr %118, i32 0, i32 6
  %120 = load double, ptr %119, align 8, !tbaa !59
  %121 = load ptr, ptr %4, align 8, !tbaa !3
  %122 = getelementptr inbounds nuw %struct.PJconsts, ptr %121, i32 0, i32 21
  %123 = load double, ptr %122, align 8, !tbaa !58
  %124 = fdiv double %120, %123
  %125 = fmul double %117, %124
  %126 = getelementptr inbounds nuw %struct.PJ_XYZ, ptr %0, i32 0, i32 0
  store double %125, ptr %126, align 8, !tbaa !66
  %127 = getelementptr inbounds nuw %struct.PJ_LPZ, ptr %1, i32 0, i32 1
  %128 = load double, ptr %127, align 8, !tbaa !62
  %129 = load ptr, ptr %5, align 8, !tbaa !41
  %130 = getelementptr inbounds nuw %"struct.(anonymous namespace)::pj_sch_data", ptr %129, i32 0, i32 6
  %131 = load double, ptr %130, align 8, !tbaa !59
  %132 = load ptr, ptr %4, align 8, !tbaa !3
  %133 = getelementptr inbounds nuw %struct.PJconsts, ptr %132, i32 0, i32 21
  %134 = load double, ptr %133, align 8, !tbaa !58
  %135 = fdiv double %131, %134
  %136 = fmul double %128, %135
  %137 = getelementptr inbounds nuw %struct.PJ_XYZ, ptr %0, i32 0, i32 1
  store double %136, ptr %137, align 8, !tbaa !68
  %138 = getelementptr inbounds nuw %struct.PJ_LPZ, ptr %1, i32 0, i32 2
  %139 = load double, ptr %138, align 8, !tbaa !63
  %140 = getelementptr inbounds nuw %struct.PJ_XYZ, ptr %0, i32 0, i32 2
  store double %139, ptr %140, align 8, !tbaa !69
  call void @llvm.lifetime.end.p0(i64 8, ptr %5) #8
  ret void
}