; Function Attrs: mustprogress uwtable
define internal void @_ZL13sch_forward3d6PJ_LPZP8PJconsts(ptr dead_on_unwind noalias writable sret(%struct.PJ_XYZ) align 8 %0, ptr noundef byval(%struct.PJ_LPZ) align 8 captures(none) %1, ptr noundef readonly captures(none) %2) #0 {
  %4 = getelementptr inbounds nuw i8, ptr %2, i64 88
  %5 = load ptr, ptr %4, align 8, !tbaa !40
  %6 = getelementptr inbounds nuw i8, ptr %5, i64 136
  %7 = load ptr, ptr %6, align 8, !tbaa !49
  %8 = getelementptr inbounds nuw i8, ptr %7, i64 120
  %9 = load ptr, ptr %8, align 8, !tbaa !56
  tail call void %9(ptr dead_on_unwind writable sret(%struct.PJ_XYZ) align 8 %0, ptr noundef nonnull byval(%struct.PJ_LPZ) align 8 %1, ptr noundef %7)
  %10 = getelementptr inbounds nuw i8, ptr %5, i64 104
  %11 = load double, ptr %10, align 8, !tbaa !55
  %12 = load double, ptr %0, align 8, !tbaa !57
  %13 = fsub double %12, %11
  %14 = getelementptr inbounds nuw i8, ptr %5, i64 112
  %15 = load double, ptr %14, align 8, !tbaa !55
  %16 = getelementptr inbounds nuw i8, ptr %0, i64 8
  %17 = load double, ptr %16, align 8, !tbaa !59
  %18 = fsub double %17, %15
  %19 = getelementptr inbounds nuw i8, ptr %5, i64 120
  %20 = load double, ptr %19, align 8, !tbaa !55
  %21 = getelementptr inbounds nuw i8, ptr %0, i64 16
  %22 = load double, ptr %21, align 8, !tbaa !60
  %23 = fsub double %22, %20
  %24 = getelementptr inbounds nuw i8, ptr %5, i64 32
  %25 = load double, ptr %24, align 8, !tbaa !55
  %26 = getelementptr inbounds nuw i8, ptr %5, i64 56
  %27 = load double, ptr %26, align 8, !tbaa !55
  %28 = fmul double %18, %27
  %29 = tail call double @llvm.fmuladd.f64(double %25, double %13, double %28)
  %30 = getelementptr inbounds nuw i8, ptr %5, i64 80
  %31 = load double, ptr %30, align 8, !tbaa !55
  %32 = tail call double @llvm.fmuladd.f64(double %31, double %23, double %29)
  %33 = getelementptr inbounds nuw i8, ptr %5, i64 40
  %34 = load double, ptr %33, align 8, !tbaa !55
  %35 = getelementptr inbounds nuw i8, ptr %5, i64 64
  %36 = load double, ptr %35, align 8, !tbaa !55
  %37 = fmul double %18, %36
  %38 = tail call double @llvm.fmuladd.f64(double %34, double %13, double %37)
  %39 = getelementptr inbounds nuw i8, ptr %5, i64 88
  %40 = load double, ptr %39, align 8, !tbaa !55
  %41 = tail call double @llvm.fmuladd.f64(double %40, double %23, double %38)
  %42 = getelementptr inbounds nuw i8, ptr %5, i64 48
  %43 = load double, ptr %42, align 8, !tbaa !55
  %44 = getelementptr inbounds nuw i8, ptr %5, i64 72
  %45 = load double, ptr %44, align 8, !tbaa !55
  %46 = fmul double %18, %45
  %47 = tail call double @llvm.fmuladd.f64(double %43, double %13, double %46)
  %48 = getelementptr inbounds nuw i8, ptr %5, i64 96
  %49 = load double, ptr %48, align 8, !tbaa !55
  %50 = tail call double @llvm.fmuladd.f64(double %49, double %23, double %47)
  store double %32, ptr %0, align 8, !tbaa !55
  store double %41, ptr %16, align 8, !tbaa !55
  store double %50, ptr %21, align 8, !tbaa !55
  %51 = getelementptr inbounds nuw i8, ptr %5, i64 144
  %52 = load ptr, ptr %51, align 8, !tbaa !50
  %53 = getelementptr inbounds nuw i8, ptr %52, i64 128
  %54 = load ptr, ptr %53, align 8, !tbaa !61
  call void %54(ptr dead_on_unwind nonnull writable sret(%struct.PJ_LPZ) align 8 %1, ptr noundef nonnull byval(%struct.PJ_XYZ) align 8 %0, ptr noundef %52)
  %55 = load double, ptr %1, align 8, !tbaa !62
  %56 = getelementptr inbounds nuw i8, ptr %5, i64 128
  %57 = load double, ptr %56, align 8, !tbaa !54
  %58 = getelementptr inbounds nuw i8, ptr %2, i64 168
  %59 = load double, ptr %58, align 8, !tbaa !53
  %60 = fdiv double %57, %59
  %61 = fmul double %55, %60
  store double %61, ptr %0, align 8, !tbaa !57
  %62 = getelementptr inbounds nuw i8, ptr %1, i64 8
  %63 = load double, ptr %62, align 8, !tbaa !64
  %64 = fmul double %60, %63
  store double %64, ptr %16, align 8, !tbaa !59
  %65 = getelementptr inbounds nuw i8, ptr %1, i64 16
  %66 = load double, ptr %65, align 8, !tbaa !65
  store double %66, ptr %21, align 8, !tbaa !60
  ret void
}